ccopy_reg
_reconstructor
p0
(csklearn.pipeline
Pipeline
p1
c__builtin__
object
p2
Ntp3
Rp4
(dp5
S'steps'
p6
(lp7
(S'scaler'
p8
g0
(csklearn.preprocessing.data
StandardScaler
p9
g2
Ntp10
Rp11
(dp12
S'copy'
p13
I01
sS'with_mean'
p14
I01
sS'with_std'
p15
I01
sbtp16
a(S'PCA'
p17
g0
(csklearn.decomposition.pca
PCA
p18
g2
Ntp19
Rp20
(dp21
g13
I01
sS'n_components'
p22
I15
sS'whiten'
p23
I00
sbtp24
a(S'LR'
p25
g0
(csklearn.linear_model.logistic
LogisticRegression
p26
g2
Ntp27
Rp28
(dp29
S'warm_start'
p30
I00
sS'C'
p31
F1e+18
sS'max_iter'
p32
I100
sS'verbose'
p33
I0
sS'intercept_scaling'
p34
I1
sS'dual'
p35
I00
sS'fit_intercept'
p36
I01
sS'solver'
p37
S'liblinear'
p38
sS'penalty'
p39
S'l2'
p40
sS'multi_class'
p41
S'ovr'
p42
sS'random_state'
p43
NsS'tol'
p44
F1e-15
sS'n_jobs'
p45
I1
sS'class_weight'
p46
S'balanced'
p47
sbtp48
asb.