(lp0
S'poi'
p1
aS'salary'
p2
aS'total_payments'
p3
aS'loan_advances'
p4
aS'bonus'
p5
aS'deferred_income'
p6
aS'total_stock_value'
p7
aS'expenses'
p8
aS'exercised_stock_options'
p9
aS'other'
p10
aS'long_term_incentive'
p11
aS'restricted_stock'
p12
aS'director_fees'
p13
aS'deferral_payments'
p14
aS'ratio_poi_message'
p15
aS'ratio_to_poi'
p16
aS'ratio_from_poi'
p17
aS'ratio_bonus_salary'
p18
aS'salary_squared'
p19
aS'salary_log'
p20
aS'total_payments_squared'
p21
aS'total_payments_log'
p22
aS'loan_advances_squared'
p23
aS'loan_advances_log'
p24
aS'bonus_squared'
p25
aS'bonus_log'
p26
aS'deferred_income_squared'
p27
aS'deferred_income_log'
p28
aS'total_stock_value_squared'
p29
aS'total_stock_value_log'
p30
aS'expenses_squared'
p31
aS'expenses_log'
p32
aS'exercised_stock_options_squared'
p33
aS'exercised_stock_options_log'
p34
aS'other_squared'
p35
aS'other_log'
p36
aS'long_term_incentive_squared'
p37
aS'long_term_incentive_log'
p38
aS'restricted_stock_squared'
p39
aS'restricted_stock_log'
p40
aS'director_fees_squared'
p41
aS'director_fees_log'
p42
aS'deferral_payments_squared'
p43
aS'deferral_payments_log'
p44
aS'ratio_poi_message_squared'
p45
aS'ratio_poi_message_log'
p46
aS'ratio_to_poi_squared'
p47
aS'ratio_to_poi_log'
p48
aS'ratio_from_poi_squared'
p49
aS'ratio_from_poi_log'
p50
aS'ratio_bonus_salary_squared'
p51
aS'ratio_bonus_salary_log'
p52
a.